target datalayout = "e-m:e-p270:32:32-p271:32:32-p272:64:64-i64:64-i128:128-f80:128-n8:16:32:64-S128"
target triple = "x86_64-unknown-linux-gnu"

%"class.hermes::Identifier" = type { ptr }
%"class.llvh::SMLoc" = type { ptr }
%"class.hermes::irgen::ESTreeIRGen" = type { ptr, %"class.hermes::IRBuilder", %"class.hermes::IRInstrument", ptr, ptr, ptr, ptr, %"class.hermes::ScopedHashTable", %"class.std::shared_ptr", %"class.hermes::Identifier", %"class.hermes::Identifier", %"class.hermes::Identifier", ptr, ptr, %"class.llvh::DenseMap.0" }
%"class.hermes::IRBuilder" = type { ptr, %"class.llvh::ilist_iterator", ptr, %"class.llvh::SMLoc", ptr }
%"class.llvh::ilist_iterator" = type { ptr }
%"class.hermes::IRInstrument" = type { i8 }
%"class.hermes::ScopedHashTable" = type { %"class.llvh::DenseMap", ptr }
%"class.llvh::DenseMap" = type <{ ptr, i32, i32, i32, [4 x i8] }>
%"class.std::shared_ptr" = type { %"class.std::__shared_ptr" }
%"class.std::__shared_ptr" = type { ptr, %"class.std::__shared_count" }
%"class.std::__shared_count" = type { ptr }
%"class.llvh::DenseMap.0" = type <{ ptr, i32, i32, i32, [4 x i8] }>
%"class.llvh::ilist_node_base" = type { ptr, ptr }
%"class.hermes::irgen::FunctionContext" = type { ptr, ptr, ptr, %"class.hermes::IRBuilder::SaveRestore", %"class.llvh::SmallVector.13", ptr, ptr, ptr, ptr, ptr, %"class.hermes::InternalIdentifierMaker", ptr, ptr, ptr, ptr, %"class.hermes::irgen::EnterBlockScope", %"class.std::optional", %"class.std::optional", %"class.std::optional" }
%"class.hermes::IRBuilder::SaveRestore" = type { ptr, ptr, %"class.llvh::SMLoc" }
%"class.llvh::SmallVector.13" = type { %"class.llvh::SmallVectorImpl.14", %"struct.llvh::SmallVectorStorage.17" }
%"class.llvh::SmallVectorImpl.14" = type { %"class.llvh::SmallVectorTemplateBase.15" }
%"class.llvh::SmallVectorTemplateBase.15" = type { %"class.llvh::SmallVectorTemplateCommon.16" }
%"class.llvh::SmallVectorTemplateCommon.16" = type { %"class.llvh::SmallVectorBase" }
%"class.llvh::SmallVectorBase" = type { ptr, i32, i32 }
%"struct.llvh::SmallVectorStorage.17" = type { [2 x %"struct.llvh::AlignedCharArrayUnion.18"] }
%"struct.llvh::AlignedCharArrayUnion.18" = type { %"struct.llvh::AlignedCharArray.19" }
%"struct.llvh::AlignedCharArray.19" = type { [24 x i8] }
%"class.hermes::InternalIdentifierMaker" = type { ptr, i64 }
%"class.hermes::irgen::EnterBlockScope" = type { ptr, ptr, ptr, ptr, %"class.hermes::ScopedHashTableScope" }
%"class.hermes::ScopedHashTableScope" = type { i32, ptr, ptr, ptr }
%"class.std::optional" = type { %"struct.std::_Optional_base" }
%"struct.std::_Optional_base" = type { %"struct.std::_Optional_payload" }
%"struct.std::_Optional_payload" = type { %"struct.std::_Optional_payload.base", [7 x i8] }
%"struct.std::_Optional_payload.base" = type { %"struct.std::_Optional_payload_base.base" }
%"struct.std::_Optional_payload_base.base" = type <{ %"union.std::_Optional_payload_base<hermes::irgen::EnterBlockScope>::_Storage", i8 }>
%"union.std::_Optional_payload_base<hermes::irgen::EnterBlockScope>::_Storage" = type { %"class.hermes::irgen::EnterBlockScope" }
%"struct.llvh::AlignedCharArray" = type { [8 x i8] }
%"class.hermes::Value" = type { i8, %"class.hermes::Type", %"class.llvh::SmallVector" }
%"class.hermes::Type" = type { i16, i16 }
%"class.llvh::SmallVector" = type { %"class.llvh::SmallVectorImpl", %"struct.llvh::SmallVectorStorage" }
%"class.llvh::SmallVectorImpl" = type { %"class.llvh::SmallVectorTemplateBase" }
%"class.llvh::SmallVectorTemplateBase" = type { %"class.llvh::SmallVectorTemplateCommon" }
%"class.llvh::SmallVectorTemplateCommon" = type { %"class.llvh::SmallVectorBase" }
%"struct.llvh::SmallVectorStorage" = type { [2 x %"struct.llvh::AlignedCharArrayUnion"] }
%"struct.llvh::AlignedCharArrayUnion" = type { %"struct.llvh::AlignedCharArray" }
%"class.llvh::ilist_node_impl.6" = type { %"class.llvh::ilist_node_base" }
%"class.hermes::BasicBlock" = type { %"class.llvh::ilist_node_with_parent.203", %"class.hermes::Value", %"class.llvh::iplist.205", ptr }
%"class.llvh::ilist_node_with_parent.203" = type { %"class.llvh::ilist_node.204" }
%"class.llvh::ilist_node.204" = type { %"class.llvh::ilist_node_impl.6" }
%"class.llvh::iplist.205" = type { %"class.llvh::iplist_impl.206" }
%"class.llvh::iplist_impl.206" = type { %"class.llvh::simple_ilist.211" }
%"class.llvh::simple_ilist.211" = type { %"class.llvh::ilist_sentinel.212" }
%"class.llvh::ilist_sentinel.212" = type { %"class.llvh::ilist_node_impl.24" }
%"class.llvh::ilist_node_impl.24" = type { %"class.llvh::ilist_node_base" }

; Function Attrs: mustprogress nounwind uwtable
define linkonce_odr hidden noundef ptr @_ZN6hermes5irgen11ESTreeIRGen11curFunctionEv(ptr noundef nonnull align 8 dereferenceable(200) %this) #0 comdat align 2 {
entry:
  %this.addr = alloca ptr, align 8
  store ptr %this, ptr %this.addr, align 8
  %this1 = load ptr, ptr %this.addr, align 8
  %functionContext_ = getelementptr inbounds %"class.hermes::irgen::ESTreeIRGen", ptr %this1, i32 0, i32 6
  %0 = load ptr, ptr %functionContext_, align 8
  ret ptr %0
}

; Function Attrs: mustprogress nounwind uwtable
define linkonce_odr hidden noundef ptr @_ZNK6hermes10BasicBlock9getParentEv(ptr noundef nonnull align 8 dereferenceable(80) %this) #0 comdat align 2 {
entry:
  %this.addr = alloca ptr, align 8
  store ptr %this, ptr %this.addr, align 8
  %this1 = load ptr, ptr %this.addr, align 8
  %Parent = getelementptr inbounds %"class.hermes::BasicBlock", ptr %this1, i32 0, i32 3
  %0 = load ptr, ptr %Parent, align 8
  ret ptr %0
}

; Function Attrs: mustprogress nounwind uwtable
define hidden noundef ptr @_ZN6hermes5irgen11ESTreeIRGen18genResumeGeneratorENS1_10GenFinallyEPNS_14AllocStackInstEPNS_10BasicBlockES4_(ptr noundef nonnull align 8 dereferenceable(200) %this, i32 noundef %genFinally, ptr noundef %isReturn, ptr noundef %nextBB, ptr noundef %received) #0 align 2 {
entry:
  %this.addr = alloca ptr, align 8
  %genFinally.addr = alloca i32, align 4
  %isReturn.addr = alloca ptr, align 8
  %nextBB.addr = alloca ptr, align 8
  %received.addr = alloca ptr, align 8
  %resume = alloca ptr, align 8
  %retBB = alloca ptr, align 8
  store ptr %this, ptr %this.addr, align 8
  store i32 %genFinally, ptr %genFinally.addr, align 4
  store ptr %isReturn, ptr %isReturn.addr, align 8
  store ptr %nextBB, ptr %nextBB.addr, align 8
  store ptr %received, ptr %received.addr, align 8
  %this1 = load ptr, ptr %this.addr, align 8
  %Builder = getelementptr inbounds %"class.hermes::irgen::ESTreeIRGen", ptr %this1, i32 0, i32 1
  %0 = load ptr, ptr %isReturn.addr, align 8
  %1 = icmp eq ptr %0, null
  br i1 %1, label %cast.end, label %cast.notnull

cast.notnull:                                     ; preds = %entry
  %add.ptr = getelementptr inbounds i8, ptr %0, i64 16
  br label %cast.end

cast.end:                                         ; preds = %cast.notnull, %entry
  %cast.result = phi ptr [ %add.ptr, %cast.notnull ], [ null, %entry ]
  %call = call noundef ptr @_ZN6hermes9IRBuilder25createResumeGeneratorInstEPNS_5ValueE(ptr noundef nonnull align 8 dereferenceable(40) %Builder, ptr noundef %cast.result)
  store ptr %call, ptr %resume, align 8
  %2 = load ptr, ptr %received.addr, align 8
  %tobool = icmp ne ptr %2, null
  br i1 %tobool, label %if.then, label %if.end

if.then:                                          ; preds = %cast.end
  %Builder2 = getelementptr inbounds %"class.hermes::irgen::ESTreeIRGen", ptr %this1, i32 0, i32 1
  %3 = load ptr, ptr %resume, align 8
  %4 = icmp eq ptr %3, null
  br i1 %4, label %cast.end5, label %cast.notnull3

cast.notnull3:                                    ; preds = %if.then
  %add.ptr4 = getelementptr inbounds i8, ptr %3, i64 16
  br label %cast.end5

cast.end5:                                        ; preds = %cast.notnull3, %if.then
  %cast.result6 = phi ptr [ %add.ptr4, %cast.notnull3 ], [ null, %if.then ]
  %5 = load ptr, ptr %received.addr, align 8
  %call7 = call noundef ptr @_ZN6hermes9IRBuilder20createStoreStackInstEPNS_5ValueEPNS_14AllocStackInstE(ptr noundef nonnull align 8 dereferenceable(40) %Builder2, ptr noundef %cast.result6, ptr noundef %5)
  br label %if.end

if.end:                                           ; preds = %cast.end5, %cast.end
  %Builder8 = getelementptr inbounds %"class.hermes::irgen::ESTreeIRGen", ptr %this1, i32 0, i32 1
  %Builder9 = getelementptr inbounds %"class.hermes::irgen::ESTreeIRGen", ptr %this1, i32 0, i32 1
  %call10 = call noundef ptr @_ZN6hermes9IRBuilder17getInsertionBlockEv(ptr noundef nonnull align 8 dereferenceable(40) %Builder9)
  %call11 = call noundef ptr @_ZNK6hermes10BasicBlock9getParentEv(ptr noundef nonnull align 8 dereferenceable(80) %call10)
  %call12 = call noundef ptr @_ZN6hermes9IRBuilder16createBasicBlockEPNS_8FunctionE(ptr noundef nonnull align 8 dereferenceable(40) %Builder8, ptr noundef %call11)
  store ptr %call12, ptr %retBB, align 8
  %Builder13 = getelementptr inbounds %"class.hermes::irgen::ESTreeIRGen", ptr %this1, i32 0, i32 1
  %Builder14 = getelementptr inbounds %"class.hermes::irgen::ESTreeIRGen", ptr %this1, i32 0, i32 1
  %6 = load ptr, ptr %isReturn.addr, align 8
  %call15 = call noundef ptr @_ZN6hermes9IRBuilder19createLoadStackInstEPNS_14AllocStackInstE(ptr noundef nonnull align 8 dereferenceable(40) %Builder14, ptr noundef %6)
  %7 = icmp eq ptr %call15, null
  br i1 %7, label %cast.end18, label %cast.notnull16

cast.notnull16:                                   ; preds = %if.end
  %add.ptr17 = getelementptr inbounds i8, ptr %call15, i64 16
  br label %cast.end18

cast.end18:                                       ; preds = %cast.notnull16, %if.end
  %cast.result19 = phi ptr [ %add.ptr17, %cast.notnull16 ], [ null, %if.end ]
  %8 = load ptr, ptr %retBB, align 8
  %9 = load ptr, ptr %nextBB.addr, align 8
  %call20 = call noundef ptr @_ZN6hermes9IRBuilder20createCondBranchInstEPNS_5ValueEPNS_10BasicBlockES4_(ptr noundef nonnull align 8 dereferenceable(40) %Builder13, ptr noundef %cast.result19, ptr noundef %8, ptr noundef %9)
  %Builder21 = getelementptr inbounds %"class.hermes::irgen::ESTreeIRGen", ptr %this1, i32 0, i32 1
  %10 = load ptr, ptr %retBB, align 8
  call void @_ZN6hermes9IRBuilder17setInsertionBlockEPNS_10BasicBlockE(ptr noundef nonnull align 8 dereferenceable(40) %Builder21, ptr noundef %10)
  %11 = load ptr, ptr %received.addr, align 8
  %tobool22 = icmp ne ptr %11, null
  br i1 %tobool22, label %if.then23, label %if.end30

if.then23:                                        ; preds = %cast.end18
  %Builder24 = getelementptr inbounds %"class.hermes::irgen::ESTreeIRGen", ptr %this1, i32 0, i32 1
  %12 = load ptr, ptr %resume, align 8
  %13 = icmp eq ptr %12, null
  br i1 %13, label %cast.end27, label %cast.notnull25

cast.notnull25:                                   ; preds = %if.then23
  %add.ptr26 = getelementptr inbounds i8, ptr %12, i64 16
  br label %cast.end27

cast.end27:                                       ; preds = %cast.notnull25, %if.then23
  %cast.result28 = phi ptr [ %add.ptr26, %cast.notnull25 ], [ null, %if.then23 ]
  %14 = load ptr, ptr %received.addr, align 8
  %call29 = call noundef ptr @_ZN6hermes9IRBuilder20createStoreStackInstEPNS_5ValueEPNS_14AllocStackInstE(ptr noundef nonnull align 8 dereferenceable(40) %Builder24, ptr noundef %cast.result28, ptr noundef %14)
  br label %if.end30

if.end30:                                         ; preds = %cast.end27, %cast.end18
  %15 = load i32, ptr %genFinally.addr, align 4
  %cmp = icmp eq i32 %15, 1
  br i1 %cmp, label %if.then31, label %if.end33

if.then31:                                        ; preds = %if.end30
  %call32 = call noundef ptr @_ZN6hermes5irgen11ESTreeIRGen11curFunctionEv(ptr noundef nonnull align 8 dereferenceable(200) %this1)
  %surroundingTry = getelementptr inbounds %"class.hermes::irgen::FunctionContext", ptr %call32, i32 0, i32 6
  %16 = load ptr, ptr %surroundingTry, align 8
  call void @_ZN6hermes5irgen11ESTreeIRGen29genFinallyBeforeControlChangeEPNS0_14SurroundingTryES3_NS0_17ControlFlowChangeEPNS_10BasicBlockE(ptr noundef nonnull align 8 dereferenceable(200) %this1, ptr noundef %16, ptr noundef null, i32 noundef 0, ptr noundef null)
  br label %if.end33

if.end33:                                         ; preds = %if.then31, %if.end30
  %Builder34 = getelementptr inbounds %"class.hermes::irgen::ESTreeIRGen", ptr %this1, i32 0, i32 1
  %17 = load ptr, ptr %resume, align 8
  %18 = icmp eq ptr %17, null
  br i1 %18, label %cast.end37, label %cast.notnull35

cast.notnull35:                                   ; preds = %if.end33
  %add.ptr36 = getelementptr inbounds i8, ptr %17, i64 16
  br label %cast.end37

cast.end37:                                       ; preds = %cast.notnull35, %if.end33
  %cast.result38 = phi ptr [ %add.ptr36, %cast.notnull35 ], [ null, %if.end33 ]
  %call39 = call noundef ptr @_ZN6hermes9IRBuilder16createReturnInstEPNS_5ValueE(ptr noundef nonnull align 8 dereferenceable(40) %Builder34, ptr noundef %cast.result38)
  %Builder40 = getelementptr inbounds %"class.hermes::irgen::ESTreeIRGen", ptr %this1, i32 0, i32 1
  %19 = load ptr, ptr %nextBB.addr, align 8
  call void @_ZN6hermes9IRBuilder17setInsertionBlockEPNS_10BasicBlockE(ptr noundef nonnull align 8 dereferenceable(40) %Builder40, ptr noundef %19)
  %20 = load ptr, ptr %resume, align 8
  %21 = icmp eq ptr %20, null
  br i1 %21, label %cast.end43, label %cast.notnull41

cast.notnull41:                                   ; preds = %cast.end37
  %add.ptr42 = getelementptr inbounds i8, ptr %20, i64 16
  br label %cast.end43

cast.end43:                                       ; preds = %cast.notnull41, %cast.end37
  %cast.result44 = phi ptr [ %add.ptr42, %cast.notnull41 ], [ null, %cast.end37 ]
  ret ptr %cast.result44
}