; Function Attrs: mustprogress nounwind uwtable
define hidden noundef ptr @_ZN6hermes5irgen11ESTreeIRGen18genResumeGeneratorENS1_10GenFinallyEPNS_14AllocStackInstEPNS_10BasicBlockES4_(ptr noundef nonnull align 8 dereferenceable(200) %this, i32 noundef %genFinally, ptr noundef %isReturn, ptr noundef %nextBB, ptr noundef %received) local_unnamed_addr #0 align 2 {
entry:
  %Builder = getelementptr inbounds i8, ptr %this, i64 8
  %0 = icmp eq ptr %isReturn, null
  %add.ptr = getelementptr inbounds i8, ptr %isReturn, i64 16
  %spec.select = select i1 %0, ptr null, ptr %add.ptr
  %call = tail call noundef ptr @_ZN6hermes9IRBuilder25createResumeGeneratorInstEPNS_5ValueE(ptr noundef nonnull align 8 dereferenceable(40) %Builder, ptr noundef %spec.select) #16
  %tobool.not = icmp eq ptr %received, null
  br i1 %tobool.not, label %if.end30.critedge, label %if.then

if.then:                                          ; preds = %entry
  %1 = icmp eq ptr %call, null
  %add.ptr4 = getelementptr inbounds i8, ptr %call, i64 16
  %spec.select1 = select i1 %1, ptr null, ptr %add.ptr4
  %call7 = tail call noundef ptr @_ZN6hermes9IRBuilder20createStoreStackInstEPNS_5ValueEPNS_14AllocStackInstE(ptr noundef nonnull align 8 dereferenceable(40) %Builder, ptr noundef %spec.select1, ptr noundef nonnull %received) #16
  %call10 = tail call noundef ptr @_ZN6hermes9IRBuilder17getInsertionBlockEv(ptr noundef nonnull align 8 dereferenceable(40) %Builder) #16
  %Parent.i = getelementptr inbounds i8, ptr %call10, i64 72
  %2 = load ptr, ptr %Parent.i, align 8
  %call12 = tail call noundef ptr @_ZN6hermes9IRBuilder16createBasicBlockEPNS_8FunctionE(ptr noundef nonnull align 8 dereferenceable(40) %Builder, ptr noundef %2) #16
  %call15 = tail call noundef ptr @_ZN6hermes9IRBuilder19createLoadStackInstEPNS_14AllocStackInstE(ptr noundef nonnull align 8 dereferenceable(40) %Builder, ptr noundef %isReturn) #16
  %3 = icmp eq ptr %call15, null
  %add.ptr17 = getelementptr inbounds i8, ptr %call15, i64 16
  %spec.select2 = select i1 %3, ptr null, ptr %add.ptr17
  %call20 = tail call noundef ptr @_ZN6hermes9IRBuilder20createCondBranchInstEPNS_5ValueEPNS_10BasicBlockES4_(ptr noundef nonnull align 8 dereferenceable(40) %Builder, ptr noundef %spec.select2, ptr noundef %call12, ptr noundef %nextBB) #16
  tail call void @_ZN6hermes9IRBuilder17setInsertionBlockEPNS_10BasicBlockE(ptr noundef nonnull align 8 dereferenceable(40) %Builder, ptr noundef %call12) #16
  %call29 = tail call noundef ptr @_ZN6hermes9IRBuilder20createStoreStackInstEPNS_5ValueEPNS_14AllocStackInstE(ptr noundef nonnull align 8 dereferenceable(40) %Builder, ptr noundef %spec.select1, ptr noundef nonnull %received) #16
  br label %if.end30

if.end30.critedge:                                ; preds = %entry
  %call10.c = tail call noundef ptr @_ZN6hermes9IRBuilder17getInsertionBlockEv(ptr noundef nonnull align 8 dereferenceable(40) %Builder) #16
  %Parent.i14 = getelementptr inbounds i8, ptr %call10.c, i64 72
  %4 = load ptr, ptr %Parent.i14, align 8
  %call12.c = tail call noundef ptr @_ZN6hermes9IRBuilder16createBasicBlockEPNS_8FunctionE(ptr noundef nonnull align 8 dereferenceable(40) %Builder, ptr noundef %4) #16
  %call15.c = tail call noundef ptr @_ZN6hermes9IRBuilder19createLoadStackInstEPNS_14AllocStackInstE(ptr noundef nonnull align 8 dereferenceable(40) %Builder, ptr noundef %isReturn) #16
  %5 = icmp eq ptr %call15.c, null
  %add.ptr17.c = getelementptr inbounds i8, ptr %call15.c, i64 16
  %spec.select2.c = select i1 %5, ptr null, ptr %add.ptr17.c
  %call20.c = tail call noundef ptr @_ZN6hermes9IRBuilder20createCondBranchInstEPNS_5ValueEPNS_10BasicBlockES4_(ptr noundef nonnull align 8 dereferenceable(40) %Builder, ptr noundef %spec.select2.c, ptr noundef %call12.c, ptr noundef %nextBB) #16
  tail call void @_ZN6hermes9IRBuilder17setInsertionBlockEPNS_10BasicBlockE(ptr noundef nonnull align 8 dereferenceable(40) %Builder, ptr noundef %call12.c) #16
  br label %if.end30

if.end30:                                         ; preds = %if.end30.critedge, %if.then
  %cmp = icmp eq i32 %genFinally, 1
  br i1 %cmp, label %if.then31, label %if.end33

if.then31:                                        ; preds = %if.end30
  %functionContext_.i = getelementptr inbounds i8, ptr %this, i64 80
  %6 = load ptr, ptr %functionContext_.i, align 8
  %surroundingTry = getelementptr inbounds i8, ptr %6, i64 120
  %7 = load ptr, ptr %surroundingTry, align 8
  tail call void @_ZN6hermes5irgen11ESTreeIRGen29genFinallyBeforeControlChangeEPNS0_14SurroundingTryES3_NS0_17ControlFlowChangeEPNS_10BasicBlockE(ptr noundef nonnull align 8 dereferenceable(200) %this, ptr noundef %7, ptr noundef null, i32 noundef 0, ptr noundef null) #16
  br label %if.end33

if.end33:                                         ; preds = %if.then31, %if.end30
  %8 = icmp eq ptr %call, null
  %add.ptr36 = getelementptr inbounds i8, ptr %call, i64 16
  %spec.select4 = select i1 %8, ptr null, ptr %add.ptr36
  %call39 = tail call noundef ptr @_ZN6hermes9IRBuilder16createReturnInstEPNS_5ValueE(ptr noundef nonnull align 8 dereferenceable(40) %Builder, ptr noundef %spec.select4) #16
  tail call void @_ZN6hermes9IRBuilder17setInsertionBlockEPNS_10BasicBlockE(ptr noundef nonnull align 8 dereferenceable(40) %Builder, ptr noundef %nextBB) #16
  ret ptr %spec.select4
}